target datalayout = "e-m:e-p270:32:32-p271:32:32-p272:64:64-i64:64-i128:128-f80:128-n8:16:32:64-S128"
target triple = "x86_64-pc-linux-gnu"

%struct.iseq_link_anchor = type { %struct.iseq_link_element, ptr }
%struct.iseq_link_element = type { i32, ptr, ptr }
%struct.iseq_compile_data = type { i64, i64, ptr, ptr, ptr, ptr, ptr, %struct.anon.13, %struct.anon.14, i8, i8, i32, i32, i32, i32, i32, i32, i32, ptr, ptr, ptr, ptr, i8 }
%struct.anon.13 = type { ptr, ptr }
%struct.anon.14 = type { ptr, ptr }
%struct.rb_iseq_struct = type { i64, i64, ptr, %union.anon.15 }
%union.anon.15 = type { %struct.anon.16 }
%struct.anon.16 = type { i64, i32 }
%struct.rb_code_location_struct = type { %struct.rb_code_position_struct, %struct.rb_code_position_struct }
%struct.rb_code_position_struct = type { i32, i32 }
%struct.RNode = type { i64, %struct.rb_code_location_struct, i32 }
%struct.iseq_label_data = type { %struct.iseq_link_element, i32, i32, i32, i32, i32, i8 }
%struct.iseq_compile_data_storage = type { ptr, i32, i32, [0 x i8] }

@.str.34 = private unnamed_addr constant [4 x i8] c"add\00", align 1
@.str.87 = private unnamed_addr constant [5 x i8] c"then\00", align 1
@.str.186 = private unnamed_addr constant [3 x i8] c"&.\00", align 1

; Function Attrs: nounwind sspstrong uwtable
define internal ptr @compile_data_alloc_with_arena(ptr noundef %0, i64 noundef %1) #0 {
  %3 = alloca ptr, align 8
  %4 = alloca i64, align 8
  %5 = alloca ptr, align 8
  %6 = alloca ptr, align 8
  %7 = alloca i64, align 8
  %8 = alloca i32, align 4
  store ptr %0, ptr %3, align 8, !tbaa !775
  store i64 %1, ptr %4, align 8, !tbaa !7
  call void @llvm.lifetime.start.p0(i64 8, ptr %5) #31
  store ptr null, ptr %5, align 8, !tbaa !152
  call void @llvm.lifetime.start.p0(i64 8, ptr %6) #31
  %9 = load ptr, ptr %3, align 8, !tbaa !775
  %10 = load ptr, ptr %9, align 8, !tbaa !175
  store ptr %10, ptr %6, align 8, !tbaa !175
  call void @llvm.lifetime.start.p0(i64 8, ptr %7) #31
  store i64 0, ptr %7, align 8, !tbaa !7
  %11 = load i64, ptr %4, align 8, !tbaa !7
  %12 = icmp uge i64 %11, 2147483647
  br i1 %12, label %13, label %14

13:                                               ; preds = %2
  call void @rb_memerror() #37
  unreachable

14:                                               ; preds = %2
  %15 = load ptr, ptr %6, align 8, !tbaa !175
  %16 = getelementptr inbounds nuw %struct.iseq_compile_data_storage, ptr %15, i32 0, i32 1
  %17 = load i32, ptr %16, align 8, !tbaa !41
  %18 = zext i32 %17 to i64
  %19 = load i64, ptr %4, align 8, !tbaa !7
  %20 = add i64 %18, %19
  %21 = add i64 %20, 0
  %22 = load ptr, ptr %6, align 8, !tbaa !175
  %23 = getelementptr inbounds nuw %struct.iseq_compile_data_storage, ptr %22, i32 0, i32 2
  %24 = load i32, ptr %23, align 4, !tbaa !41
  %25 = zext i32 %24 to i64
  %26 = icmp ugt i64 %21, %25
  br i1 %26, label %27, label %62

27:                                               ; preds = %14
  call void @llvm.lifetime.start.p0(i64 4, ptr %8) #31
  %28 = load ptr, ptr %6, align 8, !tbaa !175
  %29 = getelementptr inbounds nuw %struct.iseq_compile_data_storage, ptr %28, i32 0, i32 2
  %30 = load i32, ptr %29, align 4, !tbaa !41
  store i32 %30, ptr %8, align 4, !tbaa !41
  br label %31

31:                                               ; preds = %41, %27
  %32 = load i32, ptr %8, align 4, !tbaa !41
  %33 = zext i32 %32 to i64
  %34 = load i64, ptr %4, align 8, !tbaa !7
  %35 = add i64 %34, 0
  %36 = icmp ult i64 %33, %35
  br i1 %36, label %37, label %44

37:                                               ; preds = %31
  %38 = load i32, ptr %8, align 4, !tbaa !41
  %39 = icmp uge i32 %38, 1073741823
  br i1 %39, label %40, label %41

40:                                               ; preds = %37
  call void @rb_memerror() #37
  unreachable

41:                                               ; preds = %37
  %42 = load i32, ptr %8, align 4, !tbaa !41
  %43 = mul i32 %42, 2
  store i32 %43, ptr %8, align 4, !tbaa !41
  br label %31, !llvm.loop !777

44:                                               ; preds = %31
  %45 = load i32, ptr %8, align 4, !tbaa !41
  %46 = zext i32 %45 to i64
  %47 = add i64 %46, 16
  %48 = call noalias nonnull ptr @ruby_xmalloc2(i64 noundef %47, i64 noundef 1) #33
  %49 = load ptr, ptr %6, align 8, !tbaa !175
  %50 = getelementptr inbounds nuw %struct.iseq_compile_data_storage, ptr %49, i32 0, i32 0
  store ptr %48, ptr %50, align 8, !tbaa !175
  %51 = load ptr, ptr %6, align 8, !tbaa !175
  %52 = getelementptr inbounds nuw %struct.iseq_compile_data_storage, ptr %51, i32 0, i32 0
  %53 = load ptr, ptr %52, align 8, !tbaa !175
  %54 = load ptr, ptr %3, align 8, !tbaa !775
  store ptr %53, ptr %54, align 8, !tbaa !175
  store ptr %53, ptr %6, align 8, !tbaa !175
  %55 = load ptr, ptr %6, align 8, !tbaa !175
  %56 = getelementptr inbounds nuw %struct.iseq_compile_data_storage, ptr %55, i32 0, i32 0
  store ptr null, ptr %56, align 8, !tbaa !175
  %57 = load ptr, ptr %6, align 8, !tbaa !175
  %58 = getelementptr inbounds nuw %struct.iseq_compile_data_storage, ptr %57, i32 0, i32 1
  store i32 0, ptr %58, align 8, !tbaa !41
  %59 = load i32, ptr %8, align 4, !tbaa !41
  %60 = load ptr, ptr %6, align 8, !tbaa !175
  %61 = getelementptr inbounds nuw %struct.iseq_compile_data_storage, ptr %60, i32 0, i32 2
  store i32 %59, ptr %61, align 4, !tbaa !41
  call void @llvm.lifetime.end.p0(i64 4, ptr %8) #31
  br label %62

62:                                               ; preds = %44, %14
  %63 = load ptr, ptr %6, align 8, !tbaa !175
  %64 = getelementptr inbounds nuw %struct.iseq_compile_data_storage, ptr %63, i32 0, i32 3
  %65 = load ptr, ptr %6, align 8, !tbaa !175
  %66 = getelementptr inbounds nuw %struct.iseq_compile_data_storage, ptr %65, i32 0, i32 1
  %67 = load i32, ptr %66, align 8, !tbaa !41
  %68 = zext i32 %67 to i64
  %69 = getelementptr [0 x i8], ptr %64, i64 0, i64 %68
  store ptr %69, ptr %5, align 8, !tbaa !152
  %70 = load i64, ptr %4, align 8, !tbaa !7
  %71 = trunc i64 %70 to i32
  %72 = load ptr, ptr %6, align 8, !tbaa !175
  %73 = getelementptr inbounds nuw %struct.iseq_compile_data_storage, ptr %72, i32 0, i32 1
  %74 = load i32, ptr %73, align 8, !tbaa !41
  %75 = add i32 %74, %71
  store i32 %75, ptr %73, align 8, !tbaa !41
  %76 = load ptr, ptr %5, align 8, !tbaa !152
  call void @llvm.lifetime.end.p0(i64 8, ptr %7) #31
  call void @llvm.lifetime.end.p0(i64 8, ptr %6) #31
  call void @llvm.lifetime.end.p0(i64 8, ptr %5) #31
  ret ptr %76
}

; Function Attrs: nounwind sspstrong uwtable
define internal ptr @compile_data_alloc(ptr noundef %0, i64 noundef %1) #0 {
  %3 = alloca ptr, align 8
  %4 = alloca i64, align 8
  %5 = alloca ptr, align 8
  store ptr %0, ptr %3, align 8, !tbaa !11
  store i64 %1, ptr %4, align 8, !tbaa !7
  call void @llvm.lifetime.start.p0(i64 8, ptr %5) #31
  %6 = load ptr, ptr %3, align 8, !tbaa !11
  %7 = call ptr @ISEQ_COMPILE_DATA(ptr noundef %6)
  %8 = getelementptr inbounds nuw %struct.iseq_compile_data, ptr %7, i32 0, i32 7
  %9 = getelementptr inbounds nuw %struct.anon.13, ptr %8, i32 0, i32 1
  store ptr %9, ptr %5, align 8, !tbaa !775
  %10 = load ptr, ptr %5, align 8, !tbaa !775
  %11 = load i64, ptr %4, align 8, !tbaa !7
  %12 = call ptr @compile_data_alloc_with_arena(ptr noundef %10, i64 noundef %11)
  call void @llvm.lifetime.end.p0(i64 8, ptr %5) #31
  ret ptr %12
}

; Function Attrs: nounwind sspstrong uwtable
define internal void @verify_list(ptr noundef %0, ptr noundef %1) #0 {
  %3 = alloca ptr, align 8
  %4 = alloca ptr, align 8
  store ptr %0, ptr %3, align 8, !tbaa !91
  store ptr %1, ptr %4, align 8, !tbaa !37
  ret void
}

; Function Attrs: inlinehint nounwind sspstrong uwtable
define internal ptr @ISEQ_COMPILE_DATA(ptr noundef %0) #3 {
  %2 = alloca ptr, align 8
  %3 = alloca ptr, align 8
  store ptr %0, ptr %3, align 8, !tbaa !11
  %4 = load ptr, ptr %3, align 8, !tbaa !11
  %5 = getelementptr inbounds nuw %struct.rb_iseq_struct, ptr %4, i32 0, i32 0
  %6 = load i64, ptr %5, align 8, !tbaa !46
  %7 = and i64 %6, 262144
  %8 = icmp ne i64 %7, 0
  br i1 %8, label %9, label %13

9:                                                ; preds = %1
  %10 = load ptr, ptr %3, align 8, !tbaa !11
  %11 = getelementptr inbounds nuw %struct.rb_iseq_struct, ptr %10, i32 0, i32 3
  %12 = load ptr, ptr %11, align 8, !tbaa !49
  store ptr %12, ptr %2, align 8
  br label %14

13:                                               ; preds = %1
  store ptr null, ptr %2, align 8
  br label %14

14:                                               ; preds = %13, %9
  %15 = load ptr, ptr %2, align 8
  ret ptr %15
}

; Function Attrs: nounwind sspstrong uwtable
define internal ptr @compile_data_alloc_label(ptr noundef %0) #0 {
  %2 = alloca ptr, align 8
  store ptr %0, ptr %2, align 8, !tbaa !11
  %3 = load ptr, ptr %2, align 8, !tbaa !11
  %4 = call ptr @compile_data_alloc(ptr noundef %3, i64 noundef 48)
  ret ptr %4
}

; Function Attrs: nounwind sspstrong uwtable
define internal void @ADD_ELEM(ptr noundef %0, ptr noundef %1) #0 {
  %3 = alloca ptr, align 8
  %4 = alloca ptr, align 8
  store ptr %0, ptr %3, align 8, !tbaa !37
  store ptr %1, ptr %4, align 8, !tbaa !39
  %5 = load ptr, ptr %3, align 8, !tbaa !37
  %6 = getelementptr inbounds nuw %struct.iseq_link_anchor, ptr %5, i32 0, i32 1
  %7 = load ptr, ptr %6, align 8, !tbaa !20
  %8 = load ptr, ptr %4, align 8, !tbaa !39
  %9 = getelementptr inbounds nuw %struct.iseq_link_element, ptr %8, i32 0, i32 2
  store ptr %7, ptr %9, align 8, !tbaa !40
  %10 = load ptr, ptr %4, align 8, !tbaa !39
  %11 = load ptr, ptr %3, align 8, !tbaa !37
  %12 = getelementptr inbounds nuw %struct.iseq_link_anchor, ptr %11, i32 0, i32 1
  %13 = load ptr, ptr %12, align 8, !tbaa !20
  %14 = getelementptr inbounds nuw %struct.iseq_link_element, ptr %13, i32 0, i32 1
  store ptr %10, ptr %14, align 8, !tbaa !22
  %15 = load ptr, ptr %4, align 8, !tbaa !39
  %16 = load ptr, ptr %3, align 8, !tbaa !37
  %17 = getelementptr inbounds nuw %struct.iseq_link_anchor, ptr %16, i32 0, i32 1
  store ptr %15, ptr %17, align 8, !tbaa !20
  %18 = load ptr, ptr %3, align 8, !tbaa !37
  call void @verify_list(ptr noundef @.str.34, ptr noundef %18)
  ret void
}

; Function Attrs: nounwind sspstrong uwtable
define internal ptr @new_label_body(ptr noundef %0, i64 noundef %1) #0 {
  %3 = alloca ptr, align 8
  %4 = alloca i64, align 8
  %5 = alloca ptr, align 8
  store ptr %0, ptr %3, align 8, !tbaa !11
  store i64 %1, ptr %4, align 8, !tbaa !7
  call void @llvm.lifetime.start.p0(i64 8, ptr %5) #31
  %6 = load ptr, ptr %3, align 8, !tbaa !11
  %7 = call ptr @compile_data_alloc_label(ptr noundef %6)
  store ptr %7, ptr %5, align 8, !tbaa !82
  %8 = load ptr, ptr %5, align 8, !tbaa !82
  %9 = getelementptr inbounds nuw %struct.iseq_label_data, ptr %8, i32 0, i32 0
  %10 = getelementptr inbounds nuw %struct.iseq_link_element, ptr %9, i32 0, i32 0
  store i32 1, ptr %10, align 8, !tbaa !133
  %11 = load ptr, ptr %5, align 8, !tbaa !82
  %12 = getelementptr inbounds nuw %struct.iseq_label_data, ptr %11, i32 0, i32 0
  %13 = getelementptr inbounds nuw %struct.iseq_link_element, ptr %12, i32 0, i32 1
  store ptr null, ptr %13, align 8, !tbaa !134
  %14 = load ptr, ptr %3, align 8, !tbaa !11
  %15 = call ptr @ISEQ_COMPILE_DATA(ptr noundef %14)
  %16 = getelementptr inbounds nuw %struct.iseq_compile_data, ptr %15, i32 0, i32 13
  %17 = load i32, ptr %16, align 4, !tbaa !135
  %18 = add i32 %17, 1
  store i32 %18, ptr %16, align 4, !tbaa !135
  %19 = load ptr, ptr %5, align 8, !tbaa !82
  %20 = getelementptr inbounds nuw %struct.iseq_label_data, ptr %19, i32 0, i32 1
  store i32 %17, ptr %20, align 8, !tbaa !136
  %21 = load ptr, ptr %5, align 8, !tbaa !82
  %22 = getelementptr inbounds nuw %struct.iseq_label_data, ptr %21, i32 0, i32 3
  store i32 0, ptr %22, align 8, !tbaa !137
  %23 = load ptr, ptr %5, align 8, !tbaa !82
  %24 = getelementptr inbounds nuw %struct.iseq_label_data, ptr %23, i32 0, i32 4
  store i32 -1, ptr %24, align 4, !tbaa !138
  %25 = load ptr, ptr %5, align 8, !tbaa !82
  %26 = getelementptr inbounds nuw %struct.iseq_label_data, ptr %25, i32 0, i32 5
  store i32 0, ptr %26, align 8, !tbaa !87
  %27 = load ptr, ptr %5, align 8, !tbaa !82
  %28 = getelementptr inbounds nuw %struct.iseq_label_data, ptr %27, i32 0, i32 6
  %29 = load i8, ptr %28, align 4
  %30 = and i8 %29, -2
  %31 = or i8 %30, 0
  store i8 %31, ptr %28, align 4
  %32 = load ptr, ptr %5, align 8, !tbaa !82
  %33 = getelementptr inbounds nuw %struct.iseq_label_data, ptr %32, i32 0, i32 6
  %34 = load i8, ptr %33, align 4
  %35 = and i8 %34, -7
  %36 = or i8 %35, 0
  store i8 %36, ptr %33, align 4
  %37 = load ptr, ptr %5, align 8, !tbaa !82
  %38 = getelementptr inbounds nuw %struct.iseq_label_data, ptr %37, i32 0, i32 6
  %39 = load i8, ptr %38, align 4
  %40 = and i8 %39, -9
  %41 = or i8 %40, 0
  store i8 %41, ptr %38, align 4
  %42 = load ptr, ptr %5, align 8, !tbaa !82
  %43 = getelementptr inbounds nuw %struct.iseq_label_data, ptr %42, i32 0, i32 2
  store i32 -1, ptr %43, align 4, !tbaa !139
  %44 = load ptr, ptr %5, align 8, !tbaa !82
  call void @llvm.lifetime.end.p0(i64 8, ptr %5) #31
  ret ptr %44
}

; Function Attrs: inlinehint nounwind sspstrong uwtable
define internal i32 @nd_line(ptr noundef %0) #3 {
  %2 = alloca i32, align 4
  %3 = alloca ptr, align 8
  %4 = alloca i64, align 8
  store ptr %0, ptr %3, align 8, !tbaa !73
  %5 = load ptr, ptr %3, align 8, !tbaa !73
  %6 = icmp ne ptr %5, null
  br i1 %6, label %8, label %7

7:                                                ; preds = %1
  store i32 -1, ptr %2, align 4
  br label %15

8:                                                ; preds = %1
  call void @llvm.lifetime.start.p0(i64 8, ptr %4) #31
  %9 = load ptr, ptr %3, align 8, !tbaa !73
  %10 = getelementptr inbounds nuw %struct.RNode, ptr %9, i32 0, i32 0
  %11 = load i64, ptr %10, align 8, !tbaa !104
  store i64 %11, ptr %4, align 8, !tbaa !7
  %12 = load i64, ptr %4, align 8, !tbaa !7
  %13 = ashr i64 %12, 15
  %14 = trunc i64 %13 to i32
  store i32 %14, ptr %2, align 4
  call void @llvm.lifetime.end.p0(i64 8, ptr %4) #31
  br label %15

15:                                               ; preds = %8, %7
  %16 = load i32, ptr %2, align 4
  ret i32 %16
}

; Function Attrs: nounwind sspstrong uwtable
define internal ptr @qcall_branch_start(ptr noundef %0, ptr noundef %1, ptr noundef %2, ptr noundef %3, ptr noundef %4) #0 {
  %6 = alloca ptr, align 8
  %7 = alloca ptr, align 8
  %8 = alloca ptr, align 8
  %9 = alloca ptr, align 8
  %10 = alloca ptr, align 8
  %11 = alloca ptr, align 8
  %12 = alloca i64, align 8
  store ptr %0, ptr %6, align 8, !tbaa !11
  store ptr %1, ptr %7, align 8, !tbaa !37
  store ptr %2, ptr %8, align 8, !tbaa !42
  store ptr %3, ptr %9, align 8, !tbaa !73
  store ptr %4, ptr %10, align 8, !tbaa !73
  call void @llvm.lifetime.start.p0(i64 8, ptr %11) #31
  %13 = load ptr, ptr %6, align 8, !tbaa !11
  %14 = load ptr, ptr %10, align 8, !tbaa !73
  %15 = call i32 @nd_line(ptr noundef %14)
  %16 = sext i32 %15 to i64
  %17 = call ptr @new_label_body(ptr noundef %13, i64 noundef %16)
  store ptr %17, ptr %11, align 8, !tbaa !82
  call void @llvm.lifetime.start.p0(i64 8, ptr %12) #31
  store i64 0, ptr %12, align 8, !tbaa !7
  %18 = load ptr, ptr %6, align 8, !tbaa !11
  %19 = load ptr, ptr %9, align 8, !tbaa !73
  %20 = ptrtoint ptr %19 to i64
  %21 = call i64 @rb_int2inum(i64 noundef %20)
  %22 = load ptr, ptr %9, align 8, !tbaa !73
  %23 = getelementptr inbounds nuw %struct.RNode, ptr %22, i32 0, i32 1
  %24 = call i64 @decl_branch_base(ptr noundef %18, i64 noundef %21, ptr noundef %23, ptr noundef @.str.186)
  store i64 %24, ptr %12, align 8, !tbaa !7
  %25 = load i64, ptr %12, align 8, !tbaa !7
  %26 = load ptr, ptr %8, align 8, !tbaa !42
  store i64 %25, ptr %26, align 8, !tbaa !7
  %27 = load ptr, ptr %7, align 8, !tbaa !37
  %28 = load ptr, ptr %6, align 8, !tbaa !11
  %29 = load ptr, ptr %10, align 8, !tbaa !73
  %30 = call i32 @nd_line(ptr noundef %29)
  %31 = load ptr, ptr %10, align 8, !tbaa !73
  %32 = getelementptr inbounds nuw %struct.RNode, ptr %31, i32 0, i32 2
  %33 = load i32, ptr %32, align 8, !tbaa !93
  %34 = call ptr (ptr, i32, i32, i32, i32, ...) @new_insn_body(ptr noundef %28, i32 noundef %30, i32 noundef %33, i32 noundef 40, i32 noundef 0)
  call void @ADD_ELEM(ptr noundef %27, ptr noundef %34)
  %35 = load ptr, ptr %7, align 8, !tbaa !37
  %36 = load ptr, ptr %6, align 8, !tbaa !11
  %37 = load ptr, ptr %10, align 8, !tbaa !73
  %38 = call i32 @nd_line(ptr noundef %37)
  %39 = load ptr, ptr %10, align 8, !tbaa !73
  %40 = getelementptr inbounds nuw %struct.RNode, ptr %39, i32 0, i32 2
  %41 = load i32, ptr %40, align 8, !tbaa !93
  %42 = load ptr, ptr %11, align 8, !tbaa !82
  %43 = ptrtoint ptr %42 to i64
  %44 = call ptr (ptr, i32, i32, i32, i32, ...) @new_insn_body(ptr noundef %36, i32 noundef %38, i32 noundef %41, i32 noundef 74, i32 noundef 1, i64 noundef %43)
  call void @ADD_ELEM(ptr noundef %35, ptr noundef %44)
  %45 = load ptr, ptr %11, align 8, !tbaa !82
  %46 = getelementptr inbounds nuw %struct.iseq_label_data, ptr %45, i32 0, i32 5
  %47 = load i32, ptr %46, align 8, !tbaa !87
  %48 = add i32 %47, 1
  store i32 %48, ptr %46, align 8, !tbaa !87
  %49 = load ptr, ptr %6, align 8, !tbaa !11
  %50 = load ptr, ptr %7, align 8, !tbaa !37
  %51 = load ptr, ptr %9, align 8, !tbaa !73
  %52 = getelementptr inbounds nuw %struct.RNode, ptr %51, i32 0, i32 1
  %53 = load ptr, ptr %9, align 8, !tbaa !73
  %54 = getelementptr inbounds nuw %struct.RNode, ptr %53, i32 0, i32 2
  %55 = load i32, ptr %54, align 8, !tbaa !93
  %56 = load i64, ptr %12, align 8, !tbaa !7
  call void @add_trace_branch_coverage(ptr noundef %49, ptr noundef %50, ptr noundef %52, i32 noundef %55, i32 noundef 0, ptr noundef @.str.87, i64 noundef %56)
  %57 = load ptr, ptr %11, align 8, !tbaa !82
  call void @llvm.lifetime.end.p0(i64 8, ptr %12) #31
  call void @llvm.lifetime.end.p0(i64 8, ptr %11) #31
  ret ptr %57
}