; Function Attrs: nounwind sspstrong uwtable
define internal fastcc noundef ptr @qcall_branch_start(ptr noundef %0, ptr noundef nonnull captures(none) %1, ptr noundef nonnull writeonly captures(none) %2, ptr noundef %3, ptr noundef readonly captures(address_is_null) %4) unnamed_addr #1 {
nd_line.exit:
  %.not.i = icmp eq ptr %4, null
  %5 = load i64, ptr %0, align 8, !tbaa !19
  %6 = and i64 %5, 262144
  %.not.i.i.i.i = icmp eq i64 %6, 0
  br i1 %.not.i.i.i.i, label %ISEQ_COMPILE_DATA.exit.i.i.i, label %7

7:                                                ; preds = %nd_line.exit
  %8 = getelementptr inbounds nuw i8, ptr %0, i64 24
  %9 = load ptr, ptr %8, align 8, !tbaa !22
  br label %ISEQ_COMPILE_DATA.exit.i.i.i

ISEQ_COMPILE_DATA.exit.i.i.i:                     ; preds = %7, %nd_line.exit
  %.0.i.i.i.i = phi ptr [ %9, %7 ], [ null, %nd_line.exit ]
  %10 = getelementptr inbounds nuw i8, ptr %.0.i.i.i.i, i64 64
  %11 = load ptr, ptr %10, align 8, !tbaa !38
  %12 = getelementptr inbounds nuw i8, ptr %11, i64 8
  %13 = load i32, ptr %12, align 8, !tbaa !39
  %14 = zext i32 %13 to i64
  %15 = add nuw nsw i64 %14, 48
  %16 = getelementptr inbounds nuw i8, ptr %11, i64 12
  %17 = load i32, ptr %16, align 4, !tbaa !39
  %18 = zext i32 %17 to i64
  %19 = icmp samesign ugt i64 %15, %18
  br i1 %19, label %.preheader.i.i.i.i, label %new_label_body.exit

.preheader.i.i.i.i:                               ; preds = %ISEQ_COMPILE_DATA.exit.i.i.i
  %20 = icmp ult i32 %17, 48
  br i1 %20, label %.lr.ph.i.i.i.i, label %._crit_edge.i.i.i.i

.lr.ph.i.i.i.i:                                   ; preds = %.preheader.i.i.i.i, %23
  %.027.i.i.i.i = phi i32 [ %24, %23 ], [ %17, %.preheader.i.i.i.i ]
  %21 = icmp samesign ugt i32 %.027.i.i.i.i, 1073741822
  br i1 %21, label %22, label %23

22:                                               ; preds = %.lr.ph.i.i.i.i
  tail call void @rb_memerror() #39
  unreachable

23:                                               ; preds = %.lr.ph.i.i.i.i
  %24 = shl nuw nsw i32 %.027.i.i.i.i, 1
  %25 = icmp samesign ult i32 %.027.i.i.i.i, 24
  br i1 %25, label %.lr.ph.i.i.i.i, label %._crit_edge.i.i.loopexit.i.i, !llvm.loop !40

._crit_edge.i.i.loopexit.i.i:                     ; preds = %23
  %26 = zext nneg i32 %24 to i64
  br label %._crit_edge.i.i.i.i

._crit_edge.i.i.i.i:                              ; preds = %._crit_edge.i.i.loopexit.i.i, %.preheader.i.i.i.i
  %.0.lcssa.i.i.i.i = phi i32 [ %17, %.preheader.i.i.i.i ], [ %24, %._crit_edge.i.i.loopexit.i.i ]
  %.lcssa.i.i.i.i = phi i64 [ %18, %.preheader.i.i.i.i ], [ %26, %._crit_edge.i.i.loopexit.i.i ]
  %27 = add nuw nsw i64 %.lcssa.i.i.i.i, 16
  %28 = tail call noalias nonnull ptr @ruby_xmalloc2(i64 noundef %27, i64 noundef 1) #40
  store ptr %28, ptr %11, align 8, !tbaa !38
  store ptr %28, ptr %10, align 8, !tbaa !38
  store ptr null, ptr %28, align 8, !tbaa !38
  %29 = getelementptr inbounds nuw i8, ptr %28, i64 8
  store i32 0, ptr %29, align 8, !tbaa !39
  %30 = getelementptr inbounds nuw i8, ptr %28, i64 12
  store i32 %.0.lcssa.i.i.i.i, ptr %30, align 4, !tbaa !39
  %.pre.i = load i64, ptr %0, align 8, !tbaa !19
  %.pre13.i = and i64 %.pre.i, 262144
  br label %new_label_body.exit

new_label_body.exit:                              ; preds = %ISEQ_COMPILE_DATA.exit.i.i.i, %._crit_edge.i.i.i.i
  %.pre-phi.i = phi i64 [ %6, %ISEQ_COMPILE_DATA.exit.i.i.i ], [ %.pre13.i, %._crit_edge.i.i.i.i ]
  %31 = phi i32 [ %13, %ISEQ_COMPILE_DATA.exit.i.i.i ], [ 0, %._crit_edge.i.i.i.i ]
  %.022.i.i.i.i = phi ptr [ %11, %ISEQ_COMPILE_DATA.exit.i.i.i ], [ %28, %._crit_edge.i.i.i.i ]
  %32 = getelementptr inbounds nuw i8, ptr %.022.i.i.i.i, i64 16
  %33 = getelementptr inbounds nuw i8, ptr %.022.i.i.i.i, i64 8
  %34 = zext i32 %31 to i64
  %35 = getelementptr [0 x i8], ptr %32, i64 0, i64 %34
  %36 = add i32 %31, 48
  store i32 %36, ptr %33, align 8, !tbaa !39
  store i32 1, ptr %35, align 8, !tbaa !185
  %37 = getelementptr inbounds nuw i8, ptr %35, i64 8
  store ptr null, ptr %37, align 8, !tbaa !186
  %.not.i.i = icmp ne i64 %.pre-phi.i, 0
  tail call void @llvm.assume(i1 %.not.i.i)
  %38 = getelementptr inbounds nuw i8, ptr %0, i64 24
  %39 = load ptr, ptr %38, align 8, !tbaa !22
  %40 = getelementptr inbounds nuw i8, ptr %39, i64 100
  %41 = load i32, ptr %40, align 4, !tbaa !187
  %42 = add i32 %41, 1
  store i32 %42, ptr %40, align 4, !tbaa !187
  %43 = getelementptr inbounds nuw i8, ptr %35, i64 24
  store i32 %41, ptr %43, align 8, !tbaa !97
  %44 = getelementptr inbounds nuw i8, ptr %35, i64 32
  store i32 0, ptr %44, align 8, !tbaa !188
  %45 = getelementptr inbounds nuw i8, ptr %35, i64 36
  store i32 -1, ptr %45, align 4, !tbaa !95
  %46 = getelementptr inbounds nuw i8, ptr %35, i64 40
  store i32 0, ptr %46, align 8, !tbaa !189
  %47 = getelementptr inbounds nuw i8, ptr %35, i64 44
  %48 = load i8, ptr %47, align 4
  %49 = and i8 %48, -16
  store i8 %49, ptr %47, align 4
  %50 = getelementptr inbounds nuw i8, ptr %35, i64 28
  store i32 -1, ptr %50, align 4, !tbaa !106
  %51 = ptrtoint ptr %3 to i64
  %52 = tail call i64 @rb_int2inum(i64 noundef %51) #38
  %53 = getelementptr inbounds nuw i8, ptr %3, i64 8
  %54 = getelementptr i8, ptr %0, i64 16
  %.val = load ptr, ptr %54, align 8, !tbaa !45
  %55 = getelementptr i8, ptr %.val, i64 208
  %.val.val = load i64, ptr %55, align 8, !tbaa !103
  %56 = tail call fastcc i64 @decl_branch_base(i64 %.val.val, i64 noundef %52, ptr noundef nonnull %53, ptr noundef nonnull @.str.186)
  store i64 %56, ptr %2, align 8, !tbaa !37
  br i1 %.not.i, label %nd_line.exit28, label %57

57:                                               ; preds = %new_label_body.exit
  %58 = load i64, ptr %4, align 8, !tbaa !169
  %59 = lshr i64 %58, 15
  %60 = trunc i64 %59 to i32
  br label %nd_line.exit28

nd_line.exit28:                                   ; preds = %new_label_body.exit, %57
  %.0.i23 = phi i32 [ %60, %57 ], [ -1, %new_label_body.exit ]
  %61 = getelementptr inbounds nuw i8, ptr %4, i64 24
  %62 = load i32, ptr %61, align 8, !tbaa !259
  %63 = tail call fastcc noundef ptr @new_insn_core(ptr noundef nonnull %0, i32 noundef %.0.i23, i32 noundef %62, i32 noundef 40, i32 noundef 0, ptr noundef null)
  %64 = getelementptr inbounds nuw i8, ptr %1, i64 24
  %65 = load ptr, ptr %64, align 8, !tbaa !7
  %66 = getelementptr inbounds nuw i8, ptr %63, i64 16
  store ptr %65, ptr %66, align 8, !tbaa !35
  %67 = getelementptr inbounds nuw i8, ptr %65, i64 8
  store ptr %63, ptr %67, align 8, !tbaa !36
  store ptr %63, ptr %64, align 8, !tbaa !7
  %68 = load i64, ptr %4, align 8, !tbaa !169
  %69 = lshr i64 %68, 15
  %70 = trunc i64 %69 to i32
  %71 = load i32, ptr %61, align 8, !tbaa !259
  %72 = ptrtoint ptr %35 to i64
  %73 = tail call ptr (ptr, i32, i32, i32, i32, ...) @new_insn_body(ptr noundef nonnull %0, i32 noundef %70, i32 noundef %71, i32 noundef 74, i32 noundef 1, i64 noundef %72)
  %74 = load ptr, ptr %64, align 8, !tbaa !7
  %75 = getelementptr inbounds nuw i8, ptr %73, i64 16
  store ptr %74, ptr %75, align 8, !tbaa !35
  %76 = getelementptr inbounds nuw i8, ptr %74, i64 8
  store ptr %73, ptr %76, align 8, !tbaa !36
  store ptr %73, ptr %64, align 8, !tbaa !7
  %77 = load i32, ptr %46, align 8, !tbaa !189
  %78 = add i32 %77, 1
  store i32 %78, ptr %46, align 8, !tbaa !189
  %79 = getelementptr inbounds nuw i8, ptr %3, i64 24
  %80 = load i32, ptr %79, align 8, !tbaa !259
  tail call fastcc void @add_trace_branch_coverage(ptr noundef nonnull %0, ptr noundef nonnull %1, ptr noundef nonnull %53, i32 noundef %80, i32 noundef 0, ptr noundef nonnull @.str.87, i64 noundef %56)
  ret ptr %35
}